
EEPROM Image Writer.elf:     file format elf32-avr

Sections:
Idx Name          Size      VMA       LMA       File off  Algn
  0 .data         00000800  00800100  000001ea  0000025e  2**0
                  CONTENTS, ALLOC, LOAD, DATA
  1 .text         000001ea  00000000  00000000  00000074  2**1
                  CONTENTS, ALLOC, LOAD, READONLY, CODE
  2 .comment      00000030  00000000  00000000  00000a5e  2**0
                  CONTENTS, READONLY
  3 .note.gnu.avr.deviceinfo 00000040  00000000  00000000  00000a90  2**2
                  CONTENTS, READONLY
  4 .debug_aranges 00000020  00000000  00000000  00000ad0  2**3
                  CONTENTS, READONLY, DEBUGGING
  5 .debug_info   0000081c  00000000  00000000  00000af0  2**0
                  CONTENTS, READONLY, DEBUGGING
  6 .debug_abbrev 0000072c  00000000  00000000  0000130c  2**0
                  CONTENTS, READONLY, DEBUGGING
  7 .debug_line   0000021a  00000000  00000000  00001a38  2**0
                  CONTENTS, READONLY, DEBUGGING
  8 .debug_str    0000027d  00000000  00000000  00001c52  2**0
                  CONTENTS, READONLY, DEBUGGING

Disassembly of section .text:

00000000 <__vectors>:
   0:	45 c0       	rjmp	.+138    	; 0x8c <__ctors_end>
   2:	00 00       	nop
   4:	58 c0       	rjmp	.+176    	; 0xb6 <__bad_interrupt>
   6:	00 00       	nop
   8:	56 c0       	rjmp	.+172    	; 0xb6 <__bad_interrupt>
   a:	00 00       	nop
   c:	54 c0       	rjmp	.+168    	; 0xb6 <__bad_interrupt>
   e:	00 00       	nop
  10:	52 c0       	rjmp	.+164    	; 0xb6 <__bad_interrupt>
  12:	00 00       	nop
  14:	50 c0       	rjmp	.+160    	; 0xb6 <__bad_interrupt>
  16:	00 00       	nop
  18:	4e c0       	rjmp	.+156    	; 0xb6 <__bad_interrupt>
  1a:	00 00       	nop
  1c:	4c c0       	rjmp	.+152    	; 0xb6 <__bad_interrupt>
  1e:	00 00       	nop
  20:	4a c0       	rjmp	.+148    	; 0xb6 <__bad_interrupt>
  22:	00 00       	nop
  24:	48 c0       	rjmp	.+144    	; 0xb6 <__bad_interrupt>
  26:	00 00       	nop
  28:	46 c0       	rjmp	.+140    	; 0xb6 <__bad_interrupt>
  2a:	00 00       	nop
  2c:	44 c0       	rjmp	.+136    	; 0xb6 <__bad_interrupt>
  2e:	00 00       	nop
  30:	42 c0       	rjmp	.+132    	; 0xb6 <__bad_interrupt>
  32:	00 00       	nop
  34:	40 c0       	rjmp	.+128    	; 0xb6 <__bad_interrupt>
  36:	00 00       	nop
  38:	3e c0       	rjmp	.+124    	; 0xb6 <__bad_interrupt>
  3a:	00 00       	nop
  3c:	3c c0       	rjmp	.+120    	; 0xb6 <__bad_interrupt>
  3e:	00 00       	nop
  40:	3a c0       	rjmp	.+116    	; 0xb6 <__bad_interrupt>
  42:	00 00       	nop
  44:	38 c0       	rjmp	.+112    	; 0xb6 <__bad_interrupt>
  46:	00 00       	nop
  48:	36 c0       	rjmp	.+108    	; 0xb6 <__bad_interrupt>
  4a:	00 00       	nop
  4c:	34 c0       	rjmp	.+104    	; 0xb6 <__bad_interrupt>
  4e:	00 00       	nop
  50:	32 c0       	rjmp	.+100    	; 0xb6 <__bad_interrupt>
  52:	00 00       	nop
  54:	30 c0       	rjmp	.+96     	; 0xb6 <__bad_interrupt>
  56:	00 00       	nop
  58:	2e c0       	rjmp	.+92     	; 0xb6 <__bad_interrupt>
  5a:	00 00       	nop
  5c:	2c c0       	rjmp	.+88     	; 0xb6 <__bad_interrupt>
  5e:	00 00       	nop
  60:	2a c0       	rjmp	.+84     	; 0xb6 <__bad_interrupt>
  62:	00 00       	nop
  64:	28 c0       	rjmp	.+80     	; 0xb6 <__bad_interrupt>
  66:	00 00       	nop
  68:	26 c0       	rjmp	.+76     	; 0xb6 <__bad_interrupt>
  6a:	00 00       	nop
  6c:	24 c0       	rjmp	.+72     	; 0xb6 <__bad_interrupt>
  6e:	00 00       	nop
  70:	22 c0       	rjmp	.+68     	; 0xb6 <__bad_interrupt>
  72:	00 00       	nop
  74:	20 c0       	rjmp	.+64     	; 0xb6 <__bad_interrupt>
  76:	00 00       	nop
  78:	1e c0       	rjmp	.+60     	; 0xb6 <__bad_interrupt>
  7a:	00 00       	nop
  7c:	1c c0       	rjmp	.+56     	; 0xb6 <__bad_interrupt>
  7e:	00 00       	nop
  80:	1a c0       	rjmp	.+52     	; 0xb6 <__bad_interrupt>
  82:	00 00       	nop
  84:	18 c0       	rjmp	.+48     	; 0xb6 <__bad_interrupt>
  86:	00 00       	nop
  88:	16 c0       	rjmp	.+44     	; 0xb6 <__bad_interrupt>
	...

0000008c <__ctors_end>:
  8c:	11 24       	eor	r1, r1
  8e:	1f be       	out	0x3f, r1	; 63
  90:	cf ef       	ldi	r28, 0xFF	; 255
  92:	d0 e1       	ldi	r29, 0x10	; 16
  94:	de bf       	out	0x3e, r29	; 62
  96:	cd bf       	out	0x3d, r28	; 61

00000098 <__do_copy_data>:
  98:	19 e0       	ldi	r17, 0x09	; 9
  9a:	a0 e0       	ldi	r26, 0x00	; 0
  9c:	b1 e0       	ldi	r27, 0x01	; 1
  9e:	ea ee       	ldi	r30, 0xEA	; 234
  a0:	f1 e0       	ldi	r31, 0x01	; 1
  a2:	00 e0       	ldi	r16, 0x00	; 0
  a4:	0b bf       	out	0x3b, r16	; 59
  a6:	02 c0       	rjmp	.+4      	; 0xac <__do_copy_data+0x14>
  a8:	07 90       	elpm	r0, Z+
  aa:	0d 92       	st	X+, r0
  ac:	a0 30       	cpi	r26, 0x00	; 0
  ae:	b1 07       	cpc	r27, r17
  b0:	d9 f7       	brne	.-10     	; 0xa8 <__do_copy_data+0x10>
  b2:	41 d0       	rcall	.+130    	; 0x136 <main>
  b4:	98 c0       	rjmp	.+304    	; 0x1e6 <_exit>

000000b6 <__bad_interrupt>:
  b6:	a4 cf       	rjmp	.-184    	; 0x0 <__vectors>

000000b8 <to_rgb>:
  b8:	61 15       	cp	r22, r1
  ba:	2f ef       	ldi	r18, 0xFF	; 255
  bc:	72 07       	cpc	r23, r18
  be:	2e e1       	ldi	r18, 0x1E	; 30
  c0:	82 07       	cpc	r24, r18
  c2:	2f ef       	ldi	r18, 0xFF	; 255
  c4:	92 07       	cpc	r25, r18
  c6:	69 f1       	breq	.+90     	; 0x122 <to_rgb+0x6a>
  c8:	98 f4       	brcc	.+38     	; 0xf0 <to_rgb+0x38>
  ca:	6f 3f       	cpi	r22, 0xFF	; 255
  cc:	24 eb       	ldi	r18, 0xB4	; 180
  ce:	72 07       	cpc	r23, r18
  d0:	81 05       	cpc	r24, r1
  d2:	2f ef       	ldi	r18, 0xFF	; 255
  d4:	92 07       	cpc	r25, r18
  d6:	09 f1       	breq	.+66     	; 0x11a <to_rgb+0x62>
  d8:	60 3f       	cpi	r22, 0xF0	; 240
  da:	2f ef       	ldi	r18, 0xFF	; 255
  dc:	72 07       	cpc	r23, r18
  de:	81 05       	cpc	r24, r1
  e0:	92 07       	cpc	r25, r18
  e2:	e9 f0       	breq	.+58     	; 0x11e <to_rgb+0x66>
  e4:	6f 3f       	cpi	r22, 0xFF	; 255
  e6:	71 05       	cpc	r23, r1
  e8:	81 05       	cpc	r24, r1
  ea:	9f 4f       	sbci	r25, 0xFF	; 255
  ec:	01 f5       	brne	.+64     	; 0x12e <to_rgb+0x76>
  ee:	21 c0       	rjmp	.+66     	; 0x132 <to_rgb+0x7a>
  f0:	61 15       	cp	r22, r1
  f2:	28 e0       	ldi	r18, 0x08	; 8
  f4:	72 07       	cpc	r23, r18
  f6:	2f ef       	ldi	r18, 0xFF	; 255
  f8:	82 07       	cpc	r24, r18
  fa:	92 07       	cpc	r25, r18
  fc:	b1 f0       	breq	.+44     	; 0x12a <to_rgb+0x72>
  fe:	61 15       	cp	r22, r1
 100:	29 ee       	ldi	r18, 0xE9	; 233
 102:	72 07       	cpc	r23, r18
 104:	2f ef       	ldi	r18, 0xFF	; 255
 106:	82 07       	cpc	r24, r18
 108:	92 07       	cpc	r25, r18
 10a:	69 f0       	breq	.+26     	; 0x126 <to_rgb+0x6e>
 10c:	63 3c       	cpi	r22, 0xC3	; 195
 10e:	71 05       	cpc	r23, r1
 110:	8f 4f       	sbci	r24, 0xFF	; 255
 112:	9f 4f       	sbci	r25, 0xFF	; 255
 114:	61 f4       	brne	.+24     	; 0x12e <to_rgb+0x76>
 116:	85 e0       	ldi	r24, 0x05	; 5
 118:	08 95       	ret
 11a:	87 e0       	ldi	r24, 0x07	; 7
 11c:	08 95       	ret
 11e:	83 e0       	ldi	r24, 0x03	; 3
 120:	08 95       	ret
 122:	82 e0       	ldi	r24, 0x02	; 2
 124:	08 95       	ret
 126:	86 e0       	ldi	r24, 0x06	; 6
 128:	08 95       	ret
 12a:	84 e0       	ldi	r24, 0x04	; 4
 12c:	08 95       	ret
 12e:	80 e0       	ldi	r24, 0x00	; 0
 130:	08 95       	ret
 132:	81 e0       	ldi	r24, 0x01	; 1
 134:	08 95       	ret

00000136 <main>:
 136:	af 92       	push	r10
 138:	bf 92       	push	r11
 13a:	cf 92       	push	r12
 13c:	df 92       	push	r13
 13e:	ef 92       	push	r14
 140:	ff 92       	push	r15
 142:	0f 93       	push	r16
 144:	1f 93       	push	r17
 146:	cf 93       	push	r28
 148:	df 93       	push	r29
 14a:	80 e0       	ldi	r24, 0x00	; 0
 14c:	e8 2e       	mov	r14, r24
 14e:	81 e0       	ldi	r24, 0x01	; 1
 150:	f8 2e       	mov	r15, r24
 152:	c0 e0       	ldi	r28, 0x00	; 0
 154:	d0 e0       	ldi	r29, 0x00	; 0
 156:	6e 01       	movw	r12, r28
 158:	f8 e0       	ldi	r31, 0x08	; 8
 15a:	cf 0e       	add	r12, r31
 15c:	d1 1c       	adc	r13, r1
 15e:	87 01       	movw	r16, r14
 160:	f8 01       	movw	r30, r16
 162:	61 91       	ld	r22, Z+
 164:	71 91       	ld	r23, Z+
 166:	81 91       	ld	r24, Z+
 168:	91 91       	ld	r25, Z+
 16a:	8f 01       	movw	r16, r30
 16c:	a5 df       	rcall	.-182    	; 0xb8 <to_rgb>
 16e:	b8 2e       	mov	r11, r24
 170:	f8 01       	movw	r30, r16
 172:	64 8d       	ldd	r22, Z+28	; 0x1c
 174:	75 8d       	ldd	r23, Z+29	; 0x1d
 176:	86 8d       	ldd	r24, Z+30	; 0x1e
 178:	97 8d       	ldd	r25, Z+31	; 0x1f
 17a:	9e df       	rcall	.-196    	; 0xb8 <to_rgb>
 17c:	f8 e0       	ldi	r31, 0x08	; 8
 17e:	8f 9f       	mul	r24, r31
 180:	c0 01       	movw	r24, r0
 182:	11 24       	eor	r1, r1
 184:	6b 2d       	mov	r22, r11
 186:	68 2b       	or	r22, r24
 188:	5e 01       	movw	r10, r28
 18a:	2f ef       	ldi	r18, 0xFF	; 255
 18c:	a2 1a       	sub	r10, r18
 18e:	b2 0a       	sbc	r11, r18
 190:	ce 01       	movw	r24, r28
 192:	18 d0       	rcall	.+48     	; 0x1c4 <eeprom_update_byte>
 194:	e5 01       	movw	r28, r10
 196:	ac 14       	cp	r10, r12
 198:	bd 04       	cpc	r11, r13
 19a:	11 f7       	brne	.-60     	; 0x160 <main+0x2a>
 19c:	80 e4       	ldi	r24, 0x40	; 64
 19e:	e8 0e       	add	r14, r24
 1a0:	f1 1c       	adc	r15, r1
 1a2:	a1 14       	cp	r10, r1
 1a4:	e1 e0       	ldi	r30, 0x01	; 1
 1a6:	be 06       	cpc	r11, r30
 1a8:	b1 f6       	brne	.-84     	; 0x156 <main+0x20>
 1aa:	80 e0       	ldi	r24, 0x00	; 0
 1ac:	90 e0       	ldi	r25, 0x00	; 0
 1ae:	df 91       	pop	r29
 1b0:	cf 91       	pop	r28
 1b2:	1f 91       	pop	r17
 1b4:	0f 91       	pop	r16
 1b6:	ff 90       	pop	r15
 1b8:	ef 90       	pop	r14
 1ba:	df 90       	pop	r13
 1bc:	cf 90       	pop	r12
 1be:	bf 90       	pop	r11
 1c0:	af 90       	pop	r10
 1c2:	08 95       	ret

000001c4 <eeprom_update_byte>:
 1c4:	26 2f       	mov	r18, r22

000001c6 <eeprom_update_r18>:
 1c6:	e1 99       	sbic	0x1c, 1	; 28
 1c8:	fe cf       	rjmp	.-4      	; 0x1c6 <eeprom_update_r18>
 1ca:	9f bb       	out	0x1f, r25	; 31
 1cc:	8e bb       	out	0x1e, r24	; 30
 1ce:	e0 9a       	sbi	0x1c, 0	; 28
 1d0:	01 97       	sbiw	r24, 0x01	; 1
 1d2:	0d b2       	in	r0, 0x1d	; 29
 1d4:	02 16       	cp	r0, r18
 1d6:	31 f0       	breq	.+12     	; 0x1e4 <eeprom_update_r18+0x1e>
 1d8:	2d bb       	out	0x1d, r18	; 29
 1da:	0f b6       	in	r0, 0x3f	; 63
 1dc:	f8 94       	cli
 1de:	e2 9a       	sbi	0x1c, 2	; 28
 1e0:	e1 9a       	sbi	0x1c, 1	; 28
 1e2:	0f be       	out	0x3f, r0	; 63
 1e4:	08 95       	ret

000001e6 <_exit>:
 1e6:	f8 94       	cli

000001e8 <__stop_program>:
 1e8:	ff cf       	rjmp	.-2      	; 0x1e8 <__stop_program>
